; ModuleID = '35/2383.c'
source_filename = "35/2383.c"
target datalayout = "e-m:e-p270:32:32-p271:32:32-p272:64:64-i64:64-f80:128-n8:16:32:64-S128"
target triple = "x86_64-pc-linux-gnu"

@.str = private unnamed_addr constant [6 x i8] c"%d,%d\00", align 1
@.str.1 = private unnamed_addr constant [3 x i8] c"%d\00", align 1
@.str.2 = private unnamed_addr constant [7 x i8] c"%d+%d\0A\00", align 1
@.str.3 = private unnamed_addr constant [4 x i8] c"No\0A\00", align 1

; Function Attrs: noinline nounwind uwtable
define dso_local i32 @main() #0 {
  %1 = alloca i32, align 4
  %2 = alloca i32, align 4
  %3 = alloca i32, align 4
  %4 = alloca i32, align 4
  %5 = alloca i32, align 4
  %6 = alloca i32, align 4
  %7 = alloca [100 x [100 x i32]], align 16
  store i32 0, i32* %1, align 4
  %8 = call i32 (i8*, ...) @__isoc99_scanf(i8* getelementptr inbounds ([6 x i8], [6 x i8]* @.str, i64 0, i64 0), i32* %2, i32* %3)
  store i32 0, i32* %4, align 4
  br label %9

9:                                                ; preds = %30, %0
  %10 = load i32, i32* %4, align 4
  %11 = load i32, i32* %2, align 4
  %12 = icmp slt i32 %10, %11
  br i1 %12, label %13, label %33

13:                                               ; preds = %9
  store i32 0, i32* %5, align 4
  br label %14

14:                                               ; preds = %26, %13
  %15 = load i32, i32* %5, align 4
  %16 = load i32, i32* %3, align 4
  %17 = icmp slt i32 %15, %16
  br i1 %17, label %18, label %29

18:                                               ; preds = %14
  %19 = load i32, i32* %4, align 4
  %20 = sext i32 %19 to i64
  %21 = getelementptr inbounds [100 x [100 x i32]], [100 x [100 x i32]]* %7, i64 0, i64 %20
  %22 = load i32, i32* %5, align 4
  %23 = sext i32 %22 to i64
  %24 = getelementptr inbounds [100 x i32], [100 x i32]* %21, i64 0, i64 %23
  %25 = call i32 (i8*, ...) @__isoc99_scanf(i8* getelementptr inbounds ([3 x i8], [3 x i8]* @.str.1, i64 0, i64 0), i32* %24)
  br label %26

26:                                               ; preds = %18
  %27 = load i32, i32* %5, align 4
  %28 = add nsw i32 %27, 1
  store i32 %28, i32* %5, align 4
  br label %14

29:                                               ; preds = %14
  br label %30

30:                                               ; preds = %29
  %31 = load i32, i32* %4, align 4
  %32 = add nsw i32 %31, 1
  store i32 %32, i32* %4, align 4
  br label %9

33:                                               ; preds = %9
  store i32 0, i32* %4, align 4
  br label %34

34:                                               ; preds = %113, %33
  %35 = load i32, i32* %4, align 4
  %36 = load i32, i32* %2, align 4
  %37 = icmp slt i32 %35, %36
  br i1 %37, label %38, label %116

38:                                               ; preds = %34
  store i32 0, i32* %5, align 4
  br label %39

39:                                               ; preds = %109, %38
  %40 = load i32, i32* %5, align 4
  %41 = load i32, i32* %3, align 4
  %42 = icmp slt i32 %40, %41
  br i1 %42, label %43, label %112

43:                                               ; preds = %39
  store i32 0, i32* %6, align 4
  br label %44

44:                                               ; preds = %66, %43
  %45 = load i32, i32* %6, align 4
  %46 = load i32, i32* %3, align 4
  %47 = icmp slt i32 %45, %46
  br i1 %47, label %48, label %69

48:                                               ; preds = %44
  %49 = load i32, i32* %4, align 4
  %50 = sext i32 %49 to i64
  %51 = getelementptr inbounds [100 x [100 x i32]], [100 x [100 x i32]]* %7, i64 0, i64 %50
  %52 = load i32, i32* %5, align 4
  %53 = sext i32 %52 to i64
  %54 = getelementptr inbounds [100 x i32], [100 x i32]* %51, i64 0, i64 %53
  %55 = load i32, i32* %54, align 4
  %56 = load i32, i32* %4, align 4
  %57 = sext i32 %56 to i64
  %58 = getelementptr inbounds [100 x [100 x i32]], [100 x [100 x i32]]* %7, i64 0, i64 %57
  %59 = load i32, i32* %6, align 4
  %60 = sext i32 %59 to i64
  %61 = getelementptr inbounds [100 x i32], [100 x i32]* %58, i64 0, i64 %60
  %62 = load i32, i32* %61, align 4
  %63 = icmp slt i32 %55, %62
  br i1 %63, label %64, label %65

64:                                               ; preds = %48
  br label %69

65:                                               ; preds = %48
  br label %66

66:                                               ; preds = %65
  %67 = load i32, i32* %6, align 4
  %68 = add nsw i32 %67, 1
  store i32 %68, i32* %6, align 4
  br label %44

69:                                               ; preds = %64, %44
  %70 = load i32, i32* %6, align 4
  %71 = load i32, i32* %3, align 4
  %72 = icmp slt i32 %70, %71
  br i1 %72, label %73, label %74

73:                                               ; preds = %69
  br label %109

74:                                               ; preds = %69
  store i32 0, i32* %6, align 4
  br label %75

75:                                               ; preds = %97, %74
  %76 = load i32, i32* %6, align 4
  %77 = load i32, i32* %2, align 4
  %78 = icmp slt i32 %76, %77
  br i1 %78, label %79, label %100

79:                                               ; preds = %75
  %80 = load i32, i32* %4, align 4
  %81 = sext i32 %80 to i64
  %82 = getelementptr inbounds [100 x [100 x i32]], [100 x [100 x i32]]* %7, i64 0, i64 %81
  %83 = load i32, i32* %5, align 4
  %84 = sext i32 %83 to i64
  %85 = getelementptr inbounds [100 x i32], [100 x i32]* %82, i64 0, i64 %84
  %86 = load i32, i32* %85, align 4
  %87 = load i32, i32* %6, align 4
  %88 = sext i32 %87 to i64
  %89 = getelementptr inbounds [100 x [100 x i32]], [100 x [100 x i32]]* %7, i64 0, i64 %88
  %90 = load i32, i32* %5, align 4
  %91 = sext i32 %90 to i64
  %92 = getelementptr inbounds [100 x i32], [100 x i32]* %89, i64 0, i64 %91
  %93 = load i32, i32* %92, align 4
  %94 = icmp sgt i32 %86, %93
  br i1 %94, label %95, label %96

95:                                               ; preds = %79
  br label %100

96:                                               ; preds = %79
  br label %97

97:                                               ; preds = %96
  %98 = load i32, i32* %6, align 4
  %99 = add nsw i32 %98, 1
  store i32 %99, i32* %6, align 4
  br label %75

100:                                              ; preds = %95, %75
  %101 = load i32, i32* %6, align 4
  %102 = load i32, i32* %2, align 4
  %103 = icmp slt i32 %101, %102
  br i1 %103, label %104, label %105

104:                                              ; preds = %100
  br label %109

105:                                              ; preds = %100
  %106 = load i32, i32* %4, align 4
  %107 = load i32, i32* %5, align 4
  %108 = call i32 (i8*, ...) @printf(i8* getelementptr inbounds ([7 x i8], [7 x i8]* @.str.2, i64 0, i64 0), i32 %106, i32 %107)
  store i32 0, i32* %1, align 4
  br label %118

109:                                              ; preds = %104, %73
  %110 = load i32, i32* %5, align 4
  %111 = add nsw i32 %110, 1
  store i32 %111, i32* %5, align 4
  br label %39

112:                                              ; preds = %39
  br label %113

113:                                              ; preds = %112
  %114 = load i32, i32* %4, align 4
  %115 = add nsw i32 %114, 1
  store i32 %115, i32* %4, align 4
  br label %34

116:                                              ; preds = %34
  %117 = call i32 (i8*, ...) @printf(i8* getelementptr inbounds ([4 x i8], [4 x i8]* @.str.3, i64 0, i64 0))
  store i32 0, i32* %1, align 4
  br label %118

118:                                              ; preds = %116, %105
  %119 = load i32, i32* %1, align 4
  ret i32 %119
}

declare dso_local i32 @__isoc99_scanf(i8*, ...) #1

declare dso_local i32 @printf(i8*, ...) #1


!llvm.module.flags = !{!0}
!llvm.ident = !{!1}

!0 = !{i32 1, !"wchar_size", i32 4}
!1 = !{!"clang version 10.0.0-4ubuntu1 "}
